; ModuleID = 'source-C-CXX/26/1762.c'
source_filename = "source-C-CXX/26/1762.c"
target datalayout = "e-m:e-p270:32:32-p271:32:32-p272:64:64-i64:64-f80:128-n8:16:32:64-S128"
target triple = "x86_64-pc-linux-gnu"

@.str = private unnamed_addr constant [4 x i8] c"%d\0A\00", align 1
@.str.1 = private unnamed_addr constant [7 x i8] c"%f%f%f\00", align 1
@.str.2 = private unnamed_addr constant [17 x i8] c"x1=%.5f;x2=%.5f\0A\00", align 1
@.str.3 = private unnamed_addr constant [12 x i8] c"x1=x2=%.5f\0A\00", align 1
@.str.4 = private unnamed_addr constant [29 x i8] c"x1=%.5f+%.5fi;x2=%.5f-%.5fi\0A\00", align 1

; Function Attrs: nofree nounwind sspstrong uwtable
define dso_local i32 @main() local_unnamed_addr #0 {
  %1 = alloca i32, align 4
  %2 = alloca float, align 4
  %3 = alloca float, align 4
  %4 = alloca float, align 4
  %5 = bitcast i32* %1 to i8*
  call void @llvm.lifetime.start.p0i8(i64 4, i8* nonnull %5) #4
  %6 = bitcast float* %2 to i8*
  call void @llvm.lifetime.start.p0i8(i64 4, i8* nonnull %6) #4
  %7 = bitcast float* %3 to i8*
  call void @llvm.lifetime.start.p0i8(i64 4, i8* nonnull %7) #4
  %8 = bitcast float* %4 to i8*
  call void @llvm.lifetime.start.p0i8(i64 4, i8* nonnull %8) #4
  %9 = call i32 (i8*, ...) @__isoc99_scanf(i8* getelementptr inbounds ([4 x i8], [4 x i8]* @.str, i64 0, i64 0), i32* nonnull %1)
  %10 = load i32, i32* %1, align 4, !tbaa !5
  %11 = icmp sgt i32 %10, 0
  br i1 %11, label %13, label %12

12:                                               ; preds = %80, %0
  call void @llvm.lifetime.end.p0i8(i64 4, i8* nonnull %8) #4
  call void @llvm.lifetime.end.p0i8(i64 4, i8* nonnull %7) #4
  call void @llvm.lifetime.end.p0i8(i64 4, i8* nonnull %6) #4
  call void @llvm.lifetime.end.p0i8(i64 4, i8* nonnull %5) #4
  ret i32 0

13:                                               ; preds = %0, %80
  %14 = phi i32 [ %81, %80 ], [ 0, %0 ]
  %15 = call i32 (i8*, ...) @__isoc99_scanf(i8* getelementptr inbounds ([7 x i8], [7 x i8]* @.str.1, i64 0, i64 0), float* nonnull %2, float* nonnull %3, float* nonnull %4)
  %16 = load float, float* %3, align 4, !tbaa !9
  %17 = fmul float %16, %16
  %18 = load float, float* %2, align 4, !tbaa !9
  %19 = fmul float %18, 4.000000e+00
  %20 = load float, float* %4, align 4, !tbaa !9
  %21 = fmul float %19, %20
  %22 = fsub float %17, %21
  %23 = fcmp ogt float %22, 0.000000e+00
  br i1 %23, label %24, label %51

24:                                               ; preds = %13
  %25 = fneg float %16
  %26 = fpext float %25 to double
  %27 = fpext float %22 to double
  %28 = call double @sqrt(double %27) #4
  %29 = fadd double %28, %26
  %30 = load float, float* %2, align 4, !tbaa !9
  %31 = fmul float %30, 2.000000e+00
  %32 = fpext float %31 to double
  %33 = fdiv double %29, %32
  %34 = load float, float* %3, align 4, !tbaa !9
  %35 = fmul float %34, %34
  %36 = fmul float %30, 4.000000e+00
  %37 = load float, float* %4, align 4, !tbaa !9
  %38 = fmul float %36, %37
  %39 = fsub float %35, %38
  %40 = fpext float %39 to double
  %41 = call double @sqrt(double %40) #4
  %42 = fneg double %41
  %43 = load float, float* %3, align 4, !tbaa !9
  %44 = fpext float %43 to double
  %45 = fsub double %42, %44
  %46 = load float, float* %2, align 4, !tbaa !9
  %47 = fmul float %46, 2.000000e+00
  %48 = fpext float %47 to double
  %49 = fdiv double %45, %48
  %50 = call i32 (i8*, ...) @printf(i8* nonnull dereferenceable(1) getelementptr inbounds ([17 x i8], [17 x i8]* @.str.2, i64 0, i64 0), double %33, double %49)
  br label %80

51:                                               ; preds = %13
  %52 = fcmp oeq float %22, 0.000000e+00
  br i1 %52, label %53, label %63

53:                                               ; preds = %51
  %54 = fcmp oeq float %16, 0.000000e+00
  br i1 %54, label %60, label %55

55:                                               ; preds = %53
  %56 = fneg float %16
  %57 = fmul float %18, 2.000000e+00
  %58 = fdiv float %56, %57
  %59 = fpext float %58 to double
  br label %60

60:                                               ; preds = %53, %55
  %61 = phi double [ %59, %55 ], [ 0.000000e+00, %53 ]
  %62 = call i32 (i8*, ...) @printf(i8* nonnull dereferenceable(1) getelementptr inbounds ([12 x i8], [12 x i8]* @.str.3, i64 0, i64 0), double %61)
  br label %80

63:                                               ; preds = %51
  %64 = fcmp olt float %22, 0.000000e+00
  br i1 %64, label %65, label %80

65:                                               ; preds = %63
  %66 = fcmp oeq float %16, 0.000000e+00
  %67 = fneg float %16
  %68 = select i1 %66, float %16, float %67
  %69 = fmul float %18, 2.000000e+00
  %70 = fdiv float %68, %69
  %71 = fsub float %21, %17
  %72 = fpext float %71 to double
  %73 = call double @sqrt(double %72) #4
  %74 = load float, float* %2, align 4, !tbaa !9
  %75 = fmul float %74, 2.000000e+00
  %76 = fpext float %75 to double
  %77 = fdiv double %73, %76
  %78 = fpext float %70 to double
  %79 = call i32 (i8*, ...) @printf(i8* nonnull dereferenceable(1) getelementptr inbounds ([29 x i8], [29 x i8]* @.str.4, i64 0, i64 0), double %78, double %77, double %78, double %77)
  br label %80

80:                                               ; preds = %24, %63, %65, %60
  %81 = add nuw nsw i32 %14, 1
  %82 = load i32, i32* %1, align 4, !tbaa !5
  %83 = icmp slt i32 %81, %82
  br i1 %83, label %13, label %12, !llvm.loop !11
}

; Function Attrs: argmemonly mustprogress nofree nosync nounwind willreturn
declare void @llvm.lifetime.start.p0i8(i64 immarg, i8* nocapture) #1

; Function Attrs: nofree nounwind
declare noundef i32 @__isoc99_scanf(i8* nocapture noundef readonly, ...) local_unnamed_addr #2

; Function Attrs: mustprogress nofree nounwind willreturn
declare double @sqrt(double) local_unnamed_addr #3

; Function Attrs: nofree nounwind
declare noundef i32 @printf(i8* nocapture noundef readonly, ...) local_unnamed_addr #2

; Function Attrs: argmemonly mustprogress nofree nosync nounwind willreturn
declare void @llvm.lifetime.end.p0i8(i64 immarg, i8* nocapture) #1


!llvm.module.flags = !{!0, !1, !2, !3}
!llvm.ident = !{!4}

!0 = !{i32 1, !"wchar_size", i32 4}
!1 = !{i32 7, !"PIC Level", i32 2}
!2 = !{i32 7, !"PIE Level", i32 2}
!3 = !{i32 7, !"uwtable", i32 1}
!4 = !{!"clang version 13.0.0"}
!5 = !{!6, !6, i64 0}
!6 = !{!"int", !7, i64 0}
!7 = !{!"omnipotent char", !8, i64 0}
!8 = !{!"Simple C/C++ TBAA"}
!9 = !{!10, !10, i64 0}
!10 = !{!"float", !7, i64 0}
!11 = distinct !{!11, !12}
!12 = !{!"llvm.loop.mustprogress"}
